target datalayout = "e-m:e-p270:32:32-p271:32:32-p272:64:64-i64:64-i128:128-f80:128-n8:16:32:64-S128"
target triple = "x86_64-pc-linux-gnu"

%struct.DdManager = type { %struct.DdNode, ptr, ptr, ptr, ptr, ptr, ptr, ptr, i32, i32, double, double, double, i32, i32, i32, i32, i32, i32, ptr, ptr, %struct.DdSubtable, i32, i32, i32, i32, i32, i32, i32, double, i32, i32, i32, ptr, i64, double, i32, ptr, ptr, ptr, ptr, ptr, ptr, ptr, i32, ptr, ptr, ptr, ptr, ptr, ptr, i32, i32, i32, double, i32, i32, i32, i32, double, double, i32, i32, i32, i32, i32, i32, i32, i32, i32, ptr, ptr, i32, i32, i32, i32, i32, i32, ptr, ptr, ptr, ptr, ptr, ptr, ptr, ptr, i32, i64, i64, i64, i32, i64, i64, double, double, double, double, double, double, i32, ptr, ptr, i64 }
%struct.DdNode = type { i32, i32, ptr, %union.anon, i64 }
%union.anon = type { %struct.DdChildren }
%struct.DdChildren = type { ptr, ptr }
%struct.DdSubtable = type { ptr, i32, i32, i32, i32, i32, i32, i32, i32, i32, i32, i32 }
%struct.Bbr_ImageTree_t_ = type { ptr, ptr, ptr, i32, i32, i32, i32, i32 }
%struct.Bbr_ImageNode_t_ = type { ptr, ptr, ptr, ptr, ptr, ptr }

@.str = private unnamed_addr constant [28 x i8] c"Original care set support: \00", align 1
@.str.1 = private unnamed_addr constant [6 x i8] c"%s = \00", align 1
@.str.2 = private unnamed_addr constant [17 x i8] c"pTree->bCareSupp\00", align 1
@.str.3 = private unnamed_addr constant [2 x i8] c"\0A\00", align 1
@.str.4 = private unnamed_addr constant [27 x i8] c"Current care set support: \00", align 1
@.str.5 = private unnamed_addr constant [6 x i8] c"bSupp\00", align 1
@.str.6 = private unnamed_addr constant [84 x i8] c"The care set depends on some vars that were not in the care set during scheduling.\0A\00", align 1

; Function Attrs: nounwind uwtable
define ptr @Bbr_bddImageCompute(ptr noundef %0, ptr noundef %1) #0 {
  %3 = alloca ptr, align 8
  %4 = alloca ptr, align 8
  %5 = alloca ptr, align 8
  %6 = alloca ptr, align 8
  %7 = alloca ptr, align 8
  %8 = alloca ptr, align 8
  %9 = alloca i32, align 4
  store ptr %0, ptr %4, align 8, !tbaa !44
  store ptr %1, ptr %5, align 8, !tbaa !8
  call void @llvm.lifetime.start.p0(i64 8, ptr %6) #6
  %10 = load ptr, ptr %4, align 8, !tbaa !44
  %11 = getelementptr inbounds nuw %struct.Bbr_ImageTree_t_, ptr %10, i32 0, i32 1
  %12 = load ptr, ptr %11, align 8, !tbaa !46
  %13 = getelementptr inbounds nuw %struct.Bbr_ImageNode_t_, ptr %12, i32 0, i32 0
  %14 = load ptr, ptr %13, align 8, !tbaa !77
  store ptr %14, ptr %6, align 8, !tbaa !3
  call void @llvm.lifetime.start.p0(i64 8, ptr %7) #6
  call void @llvm.lifetime.start.p0(i64 8, ptr %8) #6
  %15 = load ptr, ptr %4, align 8, !tbaa !44
  %16 = getelementptr inbounds nuw %struct.Bbr_ImageTree_t_, ptr %15, i32 0, i32 6
  %17 = load i32, ptr %16, align 4, !tbaa !93
  %18 = add nsw i32 %17, 1
  store i32 %18, ptr %16, align 4, !tbaa !93
  %19 = load ptr, ptr %6, align 8, !tbaa !3
  %20 = load ptr, ptr %5, align 8, !tbaa !8
  %21 = call ptr @Cudd_Support(ptr noundef %19, ptr noundef %20)
  store ptr %21, ptr %7, align 8, !tbaa !8
  %22 = load ptr, ptr %7, align 8, !tbaa !8
  call void @Cudd_Ref(ptr noundef %22)
  %23 = load ptr, ptr %7, align 8, !tbaa !8
  %24 = load ptr, ptr %4, align 8, !tbaa !44
  %25 = getelementptr inbounds nuw %struct.Bbr_ImageTree_t_, ptr %24, i32 0, i32 2
  %26 = load ptr, ptr %25, align 8, !tbaa !53
  %27 = icmp ne ptr %23, %26
  br i1 %27, label %28, label %62

28:                                               ; preds = %2
  %29 = load ptr, ptr %6, align 8, !tbaa !3
  %30 = load ptr, ptr %7, align 8, !tbaa !8
  %31 = load ptr, ptr %4, align 8, !tbaa !44
  %32 = getelementptr inbounds nuw %struct.Bbr_ImageTree_t_, ptr %31, i32 0, i32 2
  %33 = load ptr, ptr %32, align 8, !tbaa !53
  %34 = call ptr @Cudd_bddExistAbstract(ptr noundef %29, ptr noundef %30, ptr noundef %33)
  store ptr %34, ptr %8, align 8, !tbaa !8
  %35 = load ptr, ptr %8, align 8, !tbaa !8
  call void @Cudd_Ref(ptr noundef %35)
  %36 = load ptr, ptr %8, align 8, !tbaa !8
  %37 = load ptr, ptr %6, align 8, !tbaa !3
  %38 = getelementptr inbounds nuw %struct.DdManager, ptr %37, i32 0, i32 1
  %39 = load ptr, ptr %38, align 8, !tbaa !67
  %40 = icmp ne ptr %36, %39
  br i1 %40, label %41, label %59

41:                                               ; preds = %28
  %42 = call i32 (ptr, ...) @printf(ptr noundef @.str)
  %43 = call i32 (ptr, ...) @printf(ptr noundef @.str.1, ptr noundef @.str.2)
  %44 = load ptr, ptr %6, align 8, !tbaa !3
  %45 = load ptr, ptr %4, align 8, !tbaa !44
  %46 = getelementptr inbounds nuw %struct.Bbr_ImageTree_t_, ptr %45, i32 0, i32 2
  %47 = load ptr, ptr %46, align 8, !tbaa !53
  call void @Bbr_bddPrint(ptr noundef %44, ptr noundef %47)
  %48 = call i32 (ptr, ...) @printf(ptr noundef @.str.3)
  %49 = call i32 (ptr, ...) @printf(ptr noundef @.str.4)
  %50 = call i32 (ptr, ...) @printf(ptr noundef @.str.1, ptr noundef @.str.5)
  %51 = load ptr, ptr %6, align 8, !tbaa !3
  %52 = load ptr, ptr %7, align 8, !tbaa !8
  call void @Bbr_bddPrint(ptr noundef %51, ptr noundef %52)
  %53 = call i32 (ptr, ...) @printf(ptr noundef @.str.3)
  %54 = load ptr, ptr %6, align 8, !tbaa !3
  %55 = load ptr, ptr %7, align 8, !tbaa !8
  call void @Cudd_RecursiveDeref(ptr noundef %54, ptr noundef %55)
  %56 = load ptr, ptr %6, align 8, !tbaa !3
  %57 = load ptr, ptr %8, align 8, !tbaa !8
  call void @Cudd_RecursiveDeref(ptr noundef %56, ptr noundef %57)
  %58 = call i32 (ptr, ...) @printf(ptr noundef @.str.6)
  store ptr null, ptr %3, align 8
  store i32 1, ptr %9, align 4
  br label %106

59:                                               ; preds = %28
  %60 = load ptr, ptr %6, align 8, !tbaa !3
  %61 = load ptr, ptr %8, align 8, !tbaa !8
  call void @Cudd_RecursiveDeref(ptr noundef %60, ptr noundef %61)
  br label %62

62:                                               ; preds = %59, %2
  %63 = load ptr, ptr %6, align 8, !tbaa !3
  %64 = load ptr, ptr %7, align 8, !tbaa !8
  call void @Cudd_RecursiveDeref(ptr noundef %63, ptr noundef %64)
  %65 = load ptr, ptr %6, align 8, !tbaa !3
  %66 = load ptr, ptr %4, align 8, !tbaa !44
  %67 = getelementptr inbounds nuw %struct.Bbr_ImageTree_t_, ptr %66, i32 0, i32 1
  %68 = load ptr, ptr %67, align 8, !tbaa !46
  %69 = getelementptr inbounds nuw %struct.Bbr_ImageNode_t_, ptr %68, i32 0, i32 2
  %70 = load ptr, ptr %69, align 8, !tbaa !83
  call void @Cudd_RecursiveDeref(ptr noundef %65, ptr noundef %70)
  %71 = load ptr, ptr %5, align 8, !tbaa !8
  %72 = load ptr, ptr %4, align 8, !tbaa !44
  %73 = getelementptr inbounds nuw %struct.Bbr_ImageTree_t_, ptr %72, i32 0, i32 1
  %74 = load ptr, ptr %73, align 8, !tbaa !46
  %75 = getelementptr inbounds nuw %struct.Bbr_ImageNode_t_, ptr %74, i32 0, i32 2
  store ptr %71, ptr %75, align 8, !tbaa !83
  %76 = load ptr, ptr %5, align 8, !tbaa !8
  call void @Cudd_Ref(ptr noundef %76)
  %77 = load ptr, ptr %4, align 8, !tbaa !44
  %78 = getelementptr inbounds nuw %struct.Bbr_ImageTree_t_, ptr %77, i32 0, i32 4
  store i32 0, ptr %78, align 4, !tbaa !94
  %79 = load ptr, ptr %4, align 8, !tbaa !44
  %80 = load ptr, ptr %4, align 8, !tbaa !44
  %81 = getelementptr inbounds nuw %struct.Bbr_ImageTree_t_, ptr %80, i32 0, i32 0
  %82 = load ptr, ptr %81, align 8, !tbaa !50
  %83 = call i32 @Bbr_bddImageCompute_rec(ptr noundef %79, ptr noundef %82)
  %84 = icmp ne i32 %83, 0
  br i1 %84, label %86, label %85

85:                                               ; preds = %62
  store ptr null, ptr %3, align 8
  store i32 1, ptr %9, align 4
  br label %106

86:                                               ; preds = %62
  %87 = load ptr, ptr %4, align 8, !tbaa !44
  %88 = getelementptr inbounds nuw %struct.Bbr_ImageTree_t_, ptr %87, i32 0, i32 5
  %89 = load i32, ptr %88, align 8, !tbaa !95
  %90 = load ptr, ptr %4, align 8, !tbaa !44
  %91 = getelementptr inbounds nuw %struct.Bbr_ImageTree_t_, ptr %90, i32 0, i32 4
  %92 = load i32, ptr %91, align 4, !tbaa !94
  %93 = icmp slt i32 %89, %92
  br i1 %93, label %94, label %100

94:                                               ; preds = %86
  %95 = load ptr, ptr %4, align 8, !tbaa !44
  %96 = getelementptr inbounds nuw %struct.Bbr_ImageTree_t_, ptr %95, i32 0, i32 4
  %97 = load i32, ptr %96, align 4, !tbaa !94
  %98 = load ptr, ptr %4, align 8, !tbaa !44
  %99 = getelementptr inbounds nuw %struct.Bbr_ImageTree_t_, ptr %98, i32 0, i32 5
  store i32 %97, ptr %99, align 8, !tbaa !95
  br label %100

100:                                              ; preds = %94, %86
  %101 = load ptr, ptr %4, align 8, !tbaa !44
  %102 = getelementptr inbounds nuw %struct.Bbr_ImageTree_t_, ptr %101, i32 0, i32 0
  %103 = load ptr, ptr %102, align 8, !tbaa !50
  %104 = getelementptr inbounds nuw %struct.Bbr_ImageNode_t_, ptr %103, i32 0, i32 2
  %105 = load ptr, ptr %104, align 8, !tbaa !83
  store ptr %105, ptr %3, align 8
  store i32 1, ptr %9, align 4
  br label %106

106:                                              ; preds = %100, %85, %41
  call void @llvm.lifetime.end.p0(i64 8, ptr %8) #6
  call void @llvm.lifetime.end.p0(i64 8, ptr %7) #6
  call void @llvm.lifetime.end.p0(i64 8, ptr %6) #6
  %107 = load ptr, ptr %3, align 8
  ret ptr %107
}