; Function Attrs: nounwind uwtable
define ptr @Bbr_bddImageCompute(ptr noundef %0, ptr noundef %1) local_unnamed_addr #0 {
  %3 = getelementptr inbounds nuw i8, ptr %0, i64 8
  %4 = load ptr, ptr %3, align 8, !tbaa !74
  %5 = load ptr, ptr %4, align 8, !tbaa !53
  %6 = getelementptr inbounds nuw i8, ptr %0, i64 36
  %7 = load i32, ptr %6, align 4, !tbaa !84
  %8 = add nsw i32 %7, 1
  store i32 %8, ptr %6, align 4, !tbaa !84
  %9 = tail call ptr @Cudd_Support(ptr noundef %5, ptr noundef %1) #11
  tail call void @Cudd_Ref(ptr noundef %9) #11
  %10 = getelementptr inbounds nuw i8, ptr %0, i64 16
  %11 = load ptr, ptr %10, align 8, !tbaa !81
  %.not = icmp eq ptr %9, %11
  br i1 %.not, label %23, label %12

12:                                               ; preds = %2
  %13 = tail call ptr @Cudd_bddExistAbstract(ptr noundef %5, ptr noundef %9, ptr noundef %11) #11
  tail call void @Cudd_Ref(ptr noundef %13) #11
  %14 = getelementptr inbounds nuw i8, ptr %5, i64 40
  %15 = load ptr, ptr %14, align 8, !tbaa !39
  %.not43 = icmp eq ptr %13, %15
  br i1 %.not43, label %22, label %16

16:                                               ; preds = %12
  %17 = tail call i32 (ptr, ...) @printf(ptr noundef nonnull dereferenceable(1) @.str)
  %18 = tail call i32 (ptr, ...) @printf(ptr noundef nonnull dereferenceable(1) @.str.1, ptr noundef nonnull @.str.2)
  %19 = load ptr, ptr %10, align 8, !tbaa !81
  tail call fastcc void @Bbr_bddPrint(ptr noundef nonnull %5, ptr noundef %19)
  %putchar = tail call i32 @putchar(i32 10)
  %20 = tail call i32 (ptr, ...) @printf(ptr noundef nonnull dereferenceable(1) @.str.4)
  %21 = tail call i32 (ptr, ...) @printf(ptr noundef nonnull dereferenceable(1) @.str.1, ptr noundef nonnull @.str.5)
  tail call fastcc void @Bbr_bddPrint(ptr noundef nonnull %5, ptr noundef %9)
  %putchar45 = tail call i32 @putchar(i32 10)
  tail call void @Cudd_RecursiveDeref(ptr noundef nonnull %5, ptr noundef %9) #11
  tail call void @Cudd_RecursiveDeref(ptr noundef nonnull %5, ptr noundef %13) #11
  %puts = tail call i32 @puts(ptr nonnull dereferenceable(1) @str.1)
  br label %42

22:                                               ; preds = %12
  tail call void @Cudd_RecursiveDeref(ptr noundef nonnull %5, ptr noundef %13) #11
  br label %23

23:                                               ; preds = %22, %2
  tail call void @Cudd_RecursiveDeref(ptr noundef %5, ptr noundef %9) #11
  %24 = load ptr, ptr %3, align 8, !tbaa !74
  %25 = getelementptr inbounds nuw i8, ptr %24, i64 16
  %26 = load ptr, ptr %25, align 8, !tbaa !60
  tail call void @Cudd_RecursiveDeref(ptr noundef %5, ptr noundef %26) #11
  %27 = load ptr, ptr %3, align 8, !tbaa !74
  %28 = getelementptr inbounds nuw i8, ptr %27, i64 16
  store ptr %1, ptr %28, align 8, !tbaa !60
  tail call void @Cudd_Ref(ptr noundef %1) #11
  %29 = getelementptr inbounds nuw i8, ptr %0, i64 28
  store i32 0, ptr %29, align 4, !tbaa !85
  %30 = load ptr, ptr %0, align 8, !tbaa !79
  %31 = tail call fastcc i32 @Bbr_bddImageCompute_rec(ptr noundef nonnull %0, ptr noundef %30)
  %.not44 = icmp eq i32 %31, 0
  br i1 %.not44, label %42, label %32

32:                                               ; preds = %23
  %33 = getelementptr inbounds nuw i8, ptr %0, i64 32
  %34 = load i32, ptr %33, align 8, !tbaa !86
  %35 = load i32, ptr %29, align 4, !tbaa !85
  %36 = icmp slt i32 %34, %35
  br i1 %36, label %37, label %38

37:                                               ; preds = %32
  store i32 %35, ptr %33, align 8, !tbaa !86
  br label %38

38:                                               ; preds = %37, %32
  %39 = load ptr, ptr %0, align 8, !tbaa !79
  %40 = getelementptr inbounds nuw i8, ptr %39, i64 16
  %41 = load ptr, ptr %40, align 8, !tbaa !60
  br label %42

42:                                               ; preds = %23, %38, %16
  %.0 = phi ptr [ null, %16 ], [ %41, %38 ], [ null, %23 ]
  ret ptr %.0
}